target datalayout = "e-m:e-p270:32:32-p271:32:32-p272:64:64-i64:64-i128:128-f80:128-n8:16:32:64-S128"
target triple = "x86_64-pc-linux-gnu"

%struct.__va_list_tag = type { i32, i32, ptr, ptr }

@.str.5 = private unnamed_addr constant [2 x i8] c"r\00", align 1
@.str.16 = private unnamed_addr constant [11 x i8] c"/proc/stat\00", align 1
@_ZZL13open_statfilevE10haveWarned = internal global i32 0, align 4

; Function Attrs: mustprogress nounwind uwtable
define internal noundef ptr @_ZL13open_statfilev() #1 {
  %1 = alloca ptr, align 8
  %2 = call noundef ptr @_ZN2os5fopenEPKcS1_(ptr noundef @.str.16, ptr noundef @.str.5)
  store ptr %2, ptr %1, align 8
  %3 = icmp eq ptr %2, null
  br i1 %3, label %4, label %9

4:                                                ; preds = %0
  %5 = load i32, ptr @_ZZL13open_statfilevE10haveWarned, align 4
  %6 = icmp ne i32 %5, 0
  br i1 %6, label %8, label %7

7:                                                ; preds = %4
  store i32 1, ptr @_ZZL13open_statfilevE10haveWarned, align 4
  br label %8

8:                                                ; preds = %7, %4
  br label %9

9:                                                ; preds = %8, %0
  %10 = load ptr, ptr %1, align 8
  ret ptr %10
}

; Function Attrs: mustprogress nounwind uwtable
define internal noundef i32 @_ZL10parse_statPKcz(ptr noundef %0, ...) #1 {
  %2 = alloca i32, align 4
  %3 = alloca ptr, align 8
  %4 = alloca ptr, align 8
  %5 = alloca [1 x %struct.__va_list_tag], align 16
  %6 = alloca [80 x i8], align 16
  store ptr %0, ptr %3, align 8
  %7 = getelementptr inbounds [1 x %struct.__va_list_tag], ptr %5, i64 0, i64 0
  call void @llvm.va_start.p0(ptr %7)
  %8 = call noundef ptr @_ZL13open_statfilev()
  store ptr %8, ptr %4, align 8
  %9 = icmp eq ptr %8, null
  br i1 %9, label %10, label %12

10:                                               ; preds = %1
  %11 = getelementptr inbounds [1 x %struct.__va_list_tag], ptr %5, i64 0, i64 0
  call void @llvm.va_end.p0(ptr %11)
  store i32 -1, ptr %2, align 4
  br label %34

12:                                               ; preds = %1
  br label %13

13:                                               ; preds = %33, %12
  %14 = getelementptr inbounds [80 x i8], ptr %6, i64 0, i64 0
  %15 = load ptr, ptr %4, align 8
  %16 = call ptr @fgets(ptr noundef %14, i32 noundef 80, ptr noundef %15)
  %17 = icmp ne ptr %16, null
  br i1 %17, label %18, label %29

18:                                               ; preds = %13
  %19 = getelementptr inbounds [80 x i8], ptr %6, i64 0, i64 0
  %20 = load ptr, ptr %3, align 8
  %21 = getelementptr inbounds [1 x %struct.__va_list_tag], ptr %5, i64 0, i64 0
  %22 = call i32 @__isoc99_vsscanf(ptr noundef %19, ptr noundef %20, ptr noundef %21) #8
  %23 = icmp eq i32 %22, 1
  br i1 %23, label %24, label %28

24:                                               ; preds = %18
  %25 = load ptr, ptr %4, align 8
  %26 = call i32 @fclose(ptr noundef %25)
  %27 = getelementptr inbounds [1 x %struct.__va_list_tag], ptr %5, i64 0, i64 0
  call void @llvm.va_end.p0(ptr %27)
  store i32 0, ptr %2, align 4
  br label %34

28:                                               ; preds = %18
  br label %33

29:                                               ; preds = %13
  %30 = load ptr, ptr %4, align 8
  %31 = call i32 @fclose(ptr noundef %30)
  %32 = getelementptr inbounds [1 x %struct.__va_list_tag], ptr %5, i64 0, i64 0
  call void @llvm.va_end.p0(ptr %32)
  store i32 -1, ptr %2, align 4
  br label %34

33:                                               ; preds = %28
  br label %13, !llvm.loop !13

34:                                               ; preds = %29, %24, %10
  %35 = load i32, ptr %2, align 4
  ret i32 %35
}