; Function Attrs: mustprogress nounwind uwtable
define internal noundef range(i32 -1, 1) i32 @_ZL10parse_statPKcz(ptr noundef %0, ...) unnamed_addr #0 {
  %2 = alloca [1 x %struct.__va_list_tag], align 16
  %3 = alloca [80 x i8], align 16
  call void @llvm.va_start.p0(ptr nonnull %2)
  %4 = call noundef ptr @_ZN2os5fopenEPKcS1_(ptr noundef nonnull @.str.16, ptr noundef nonnull @.str.5) #18
  %5 = icmp ne ptr %4, null
  %.b.i = load i1, ptr @_ZZL13open_statfilevE10haveWarned, align 4
  %or.cond.i = select i1 %5, i1 true, i1 %.b.i
  br i1 %or.cond.i, label %_ZL13open_statfilev.exit, label %_ZL13open_statfilev.exit.thread

_ZL13open_statfilev.exit.thread:                  ; preds = %1
  store i1 true, ptr @_ZZL13open_statfilevE10haveWarned, align 4
  br label %15

_ZL13open_statfilev.exit:                         ; preds = %1
  %6 = icmp eq ptr %4, null
  br i1 %6, label %15, label %.preheader

.preheader:                                       ; preds = %_ZL13open_statfilev.exit, %8
  %7 = call ptr @fgets(ptr noundef nonnull %3, i32 noundef 80, ptr noundef nonnull %4)
  %.not = icmp eq ptr %7, null
  br i1 %.not, label %13, label %8

8:                                                ; preds = %.preheader
  %9 = call i32 @__isoc99_vsscanf(ptr noundef nonnull %3, ptr noundef %0, ptr noundef nonnull %2) #18
  %10 = icmp eq i32 %9, 1
  br i1 %10, label %11, label %.preheader, !llvm.loop !13

11:                                               ; preds = %8
  %12 = call i32 @fclose(ptr noundef nonnull %4)
  br label %15

13:                                               ; preds = %.preheader
  %14 = call i32 @fclose(ptr noundef nonnull %4)
  br label %15

15:                                               ; preds = %_ZL13open_statfilev.exit, %_ZL13open_statfilev.exit.thread, %13, %11
  %.0 = phi i32 [ 0, %11 ], [ -1, %13 ], [ -1, %_ZL13open_statfilev.exit.thread ], [ -1, %_ZL13open_statfilev.exit ]
  call void @llvm.va_end.p0(ptr nonnull %2)
  ret i32 %.0
}